target datalayout = "e-m:e-p270:32:32-p271:32:32-p272:64:64-i64:64-i128:128-f80:128-n8:16:32:64-S128"
target triple = "x86_64-pc-linux-gnu"

; Function Attrs: nounwind uwtable
define dso_local ptr @find_commit_header(ptr noundef %0, ptr noundef %1, ptr noundef %2) #0 {
  %4 = alloca ptr, align 8
  %5 = alloca ptr, align 8
  %6 = alloca ptr, align 8
  %7 = alloca ptr, align 8
  %8 = alloca i32, align 4
  %9 = alloca ptr, align 8
  %10 = alloca ptr, align 8
  %11 = alloca i32, align 4
  store ptr %0, ptr %5, align 8, !tbaa !15
  store ptr %1, ptr %6, align 8, !tbaa !15
  store ptr %2, ptr %7, align 8, !tbaa !90
  call void @llvm.lifetime.start.p0(i64 4, ptr %8) #11
  %12 = load ptr, ptr %6, align 8, !tbaa !15
  %13 = call i64 @strlen(ptr noundef %12) #13
  %14 = trunc i64 %13 to i32
  store i32 %14, ptr %8, align 4, !tbaa !11
  call void @llvm.lifetime.start.p0(i64 8, ptr %9) #11
  %15 = load ptr, ptr %5, align 8, !tbaa !15
  store ptr %15, ptr %9, align 8, !tbaa !15
  br label %16

16:                                               ; preds = %79, %3
  %17 = load ptr, ptr %9, align 8, !tbaa !15
  %18 = icmp ne ptr %17, null
  br i1 %18, label %19, label %80

19:                                               ; preds = %16
  call void @llvm.lifetime.start.p0(i64 8, ptr %10) #11
  %20 = load ptr, ptr %9, align 8, !tbaa !15
  %21 = call ptr @strchrnul(ptr noundef %20, i32 noundef 10) #13
  store ptr %21, ptr %10, align 8, !tbaa !15
  %22 = load ptr, ptr %9, align 8, !tbaa !15
  %23 = load ptr, ptr %10, align 8, !tbaa !15
  %24 = icmp eq ptr %22, %23
  br i1 %24, label %25, label %26

25:                                               ; preds = %19
  store ptr null, ptr %4, align 8
  store i32 1, ptr %11, align 4
  br label %77

26:                                               ; preds = %19
  %27 = load ptr, ptr %10, align 8, !tbaa !15
  %28 = load ptr, ptr %9, align 8, !tbaa !15
  %29 = ptrtoint ptr %27 to i64
  %30 = ptrtoint ptr %28 to i64
  %31 = sub i64 %29, %30
  %32 = load i32, ptr %8, align 4, !tbaa !11
  %33 = sext i32 %32 to i64
  %34 = icmp sgt i64 %31, %33
  br i1 %34, label %35, label %66

35:                                               ; preds = %26
  %36 = load ptr, ptr %9, align 8, !tbaa !15
  %37 = load ptr, ptr %6, align 8, !tbaa !15
  %38 = load i32, ptr %8, align 4, !tbaa !11
  %39 = sext i32 %38 to i64
  %40 = call i32 @strncmp(ptr noundef %36, ptr noundef %37, i64 noundef %39) #13
  %41 = icmp ne i32 %40, 0
  br i1 %41, label %66, label %42

42:                                               ; preds = %35
  %43 = load ptr, ptr %9, align 8, !tbaa !15
  %44 = load i32, ptr %8, align 4, !tbaa !11
  %45 = sext i32 %44 to i64
  %46 = getelementptr inbounds i8, ptr %43, i64 %45
  %47 = load i8, ptr %46, align 1, !tbaa !19
  %48 = sext i8 %47 to i32
  %49 = icmp eq i32 %48, 32
  br i1 %49, label %50, label %66

50:                                               ; preds = %42
  %51 = load ptr, ptr %10, align 8, !tbaa !15
  %52 = load ptr, ptr %9, align 8, !tbaa !15
  %53 = ptrtoint ptr %51 to i64
  %54 = ptrtoint ptr %52 to i64
  %55 = sub i64 %53, %54
  %56 = load i32, ptr %8, align 4, !tbaa !11
  %57 = sext i32 %56 to i64
  %58 = sub nsw i64 %55, %57
  %59 = sub nsw i64 %58, 1
  %60 = load ptr, ptr %7, align 8, !tbaa !90
  store i64 %59, ptr %60, align 8, !tbaa !47
  %61 = load ptr, ptr %9, align 8, !tbaa !15
  %62 = load i32, ptr %8, align 4, !tbaa !11
  %63 = sext i32 %62 to i64
  %64 = getelementptr inbounds i8, ptr %61, i64 %63
  %65 = getelementptr inbounds i8, ptr %64, i64 1
  store ptr %65, ptr %4, align 8
  store i32 1, ptr %11, align 4
  br label %77

66:                                               ; preds = %42, %35, %26
  %67 = load ptr, ptr %10, align 8, !tbaa !15
  %68 = load i8, ptr %67, align 1, !tbaa !19
  %69 = sext i8 %68 to i32
  %70 = icmp ne i32 %69, 0
  br i1 %70, label %71, label %74

71:                                               ; preds = %66
  %72 = load ptr, ptr %10, align 8, !tbaa !15
  %73 = getelementptr inbounds i8, ptr %72, i64 1
  br label %75

74:                                               ; preds = %66
  br label %75

75:                                               ; preds = %74, %71
  %76 = phi ptr [ %73, %71 ], [ null, %74 ]
  store ptr %76, ptr %9, align 8, !tbaa !15
  store i32 0, ptr %11, align 4
  br label %77

77:                                               ; preds = %75, %50, %25
  call void @llvm.lifetime.end.p0(i64 8, ptr %10) #11
  %78 = load i32, ptr %11, align 4
  switch i32 %78, label %81 [
    i32 0, label %79
  ]

79:                                               ; preds = %77
  br label %16, !llvm.loop !140

80:                                               ; preds = %16
  store ptr null, ptr %4, align 8
  store i32 1, ptr %11, align 4
  br label %81

81:                                               ; preds = %80, %77
  call void @llvm.lifetime.end.p0(i64 8, ptr %9) #11
  call void @llvm.lifetime.end.p0(i64 4, ptr %8) #11
  %82 = load ptr, ptr %4, align 8
  ret ptr %82
}