; Function Attrs: nofree nounwind memory(read, argmem: readwrite) uwtable
define dso_local ptr @find_commit_header(ptr noundef %0, ptr noundef readonly captures(none) %1, ptr noundef writeonly captures(none) %2) local_unnamed_addr #16 {
  %.not37 = icmp eq ptr %0, null
  br i1 %.not37, label %.thread, label %.lr.ph

.lr.ph:                                           ; preds = %3
  %4 = tail call i64 @strlen(ptr noundef nonnull dereferenceable(1) %1) #26
  %sext = shl i64 %4, 32
  %5 = ashr exact i64 %sext, 32
  br label %6

6:                                                ; preds = %.lr.ph, %select.unfold
  %.02438 = phi ptr [ %0, %.lr.ph ], [ %26, %select.unfold ]
  %7 = tail call ptr @strchrnul(ptr noundef nonnull %.02438, i32 noundef 10) #26
  %8 = icmp eq ptr %.02438, %7
  br i1 %8, label %.thread, label %9

9:                                                ; preds = %6
  %10 = ptrtoint ptr %7 to i64
  %11 = ptrtoint ptr %.02438 to i64
  %12 = sub i64 %10, %11
  %13 = icmp sgt i64 %12, %5
  br i1 %13, label %14, label %select.unfold

14:                                               ; preds = %9
  %15 = tail call i32 @strncmp(ptr noundef nonnull %.02438, ptr noundef nonnull %1, i64 noundef %5) #26
  %.not29 = icmp eq i32 %15, 0
  br i1 %.not29, label %16, label %select.unfold

16:                                               ; preds = %14
  %17 = getelementptr inbounds i8, ptr %.02438, i64 %5
  %18 = load i8, ptr %17, align 1, !tbaa !11
  %19 = icmp eq i8 %18, 32
  br i1 %19, label %20, label %select.unfold

20:                                               ; preds = %16
  %21 = getelementptr inbounds i8, ptr %.02438, i64 %5
  %22 = xor i64 %5, -1
  %23 = add i64 %12, %22
  store i64 %23, ptr %2, align 8, !tbaa !82
  %24 = getelementptr inbounds nuw i8, ptr %21, i64 1
  br label %.thread

select.unfold:                                    ; preds = %9, %14, %16
  %25 = load i8, ptr %7, align 1, !tbaa !11
  %.not30 = icmp eq i8 %25, 0
  %26 = getelementptr inbounds nuw i8, ptr %7, i64 1
  br i1 %.not30, label %.thread, label %6

.thread:                                          ; preds = %select.unfold, %6, %3, %20
  %.2 = phi ptr [ %24, %20 ], [ null, %3 ], [ null, %6 ], [ null, %select.unfold ]
  ret ptr %.2
}